; Function Attrs: mustprogress uwtable
define hidden void @_ZN7datalog12add_sequenceEjjR7svectorIjjE(i32 noundef %start, i32 noundef %count, ptr noundef nonnull align 8 dereferenceable(8) %v) local_unnamed_addr #3 {
entry:
  %add = add i32 %count, %start
  %cmp3 = icmp ugt i32 %add, %start
  br i1 %cmp3, label %for.body, label %for.end

for.body:                                         ; preds = %entry, %_ZN6vectorIjLb0EjE9push_backERKj.exit
  %storemerge4 = phi i32 [ %inc, %_ZN6vectorIjLb0EjE9push_backERKj.exit ], [ %start, %entry ]
  %0 = load ptr, ptr %v, align 8
  %cmp.i = icmp eq ptr %0, null
  br i1 %cmp.i, label %if.then.i, label %lor.lhs.false.i

lor.lhs.false.i:                                  ; preds = %for.body
  %arrayidx.i = getelementptr inbounds i8, ptr %0, i64 -4
  %1 = load i32, ptr %arrayidx.i, align 4
  %arrayidx4.i = getelementptr inbounds i8, ptr %0, i64 -8
  %2 = load i32, ptr %arrayidx4.i, align 4
  %cmp5.i = icmp eq i32 %1, %2
  br i1 %cmp5.i, label %if.then.i, label %_ZN6vectorIjLb0EjE9push_backERKj.exit

if.then.i:                                        ; preds = %lor.lhs.false.i, %for.body
  tail call void @_ZN6vectorIjLb0EjE13expand_vectorEv(ptr noundef nonnull align 8 dereferenceable(8) %v)
  %.pre.i = load ptr, ptr %v, align 8
  %arrayidx8.phi.trans.insert.i = getelementptr inbounds i8, ptr %.pre.i, i64 -4
  %.pre1.i = load i32, ptr %arrayidx8.phi.trans.insert.i, align 4
  br label %_ZN6vectorIjLb0EjE9push_backERKj.exit

_ZN6vectorIjLb0EjE9push_backERKj.exit:            ; preds = %lor.lhs.false.i, %if.then.i
  %3 = phi i32 [ %.pre1.i, %if.then.i ], [ %1, %lor.lhs.false.i ]
  %4 = phi ptr [ %.pre.i, %if.then.i ], [ %0, %lor.lhs.false.i ]
  %idx.ext.i = zext i32 %3 to i64
  %add.ptr.i = getelementptr inbounds i32, ptr %4, i64 %idx.ext.i
  store i32 %storemerge4, ptr %add.ptr.i, align 4
  %5 = load ptr, ptr %v, align 8
  %arrayidx10.i = getelementptr inbounds i8, ptr %5, i64 -4
  %6 = load i32, ptr %arrayidx10.i, align 4
  %inc.i = add i32 %6, 1
  store i32 %inc.i, ptr %arrayidx10.i, align 4
  %inc = add i32 %storemerge4, 1
  %exitcond.not = icmp eq i32 %inc, %add
  br i1 %exitcond.not, label %for.end, label %for.body, !llvm.loop !37

for.end:                                          ; preds = %_ZN6vectorIjLb0EjE9push_backERKj.exit, %entry
  ret void
}